target datalayout = "e-m:e-p270:32:32-p271:32:32-p272:64:64-i64:64-i128:128-f80:128-n8:16:32:64-S128"
target triple = "x86_64-unknown-linux-gnu"

@.str.28 = private unnamed_addr constant [9 x i8] c"filename\00", align 1
@.str.29 = private unnamed_addr constant [17 x i8] c"dtb dumped to %s\00", align 1

; Function Attrs: nounwind sspstrong uwtable
define dso_local void @hmp_dumpdtb(ptr noundef %mon, ptr noundef %qdict) #0 {
entry:
  %mon.addr = alloca ptr, align 8
  %qdict.addr = alloca ptr, align 8
  %filename = alloca ptr, align 8
  %local_err = alloca ptr, align 8
  store ptr %mon, ptr %mon.addr, align 8
  store ptr %qdict, ptr %qdict.addr, align 8
  %0 = load ptr, ptr %qdict.addr, align 8
  %call = call ptr @qdict_get_str(ptr noundef %0, ptr noundef @.str.28)
  store ptr %call, ptr %filename, align 8
  store ptr null, ptr %local_err, align 8
  %1 = load ptr, ptr %filename, align 8
  call void @qmp_dumpdtb(ptr noundef %1, ptr noundef %local_err)
  %2 = load ptr, ptr %mon.addr, align 8
  %3 = load ptr, ptr %local_err, align 8
  %call1 = call zeroext i1 @hmp_handle_error(ptr noundef %2, ptr noundef %3)
  br i1 %call1, label %if.then, label %if.end

if.then:                                          ; preds = %entry
  br label %return

if.end:                                           ; preds = %entry
  %4 = load ptr, ptr %filename, align 8
  call void (ptr, ...) @info_report(ptr noundef @.str.29, ptr noundef %4)
  br label %return

return:                                           ; preds = %if.end, %if.then
  ret void
}