; Function Attrs: nounwind sspstrong uwtable
define dso_local void @hmp_dumpdtb(ptr noundef %mon, ptr noundef %qdict) local_unnamed_addr #0 {
entry:
  %local_err = alloca ptr, align 8
  %call = tail call ptr @qdict_get_str(ptr noundef %qdict, ptr noundef nonnull @.str.28) #12
  store ptr null, ptr %local_err, align 8
  call void @qmp_dumpdtb(ptr noundef %call, ptr noundef nonnull %local_err)
  %0 = load ptr, ptr %local_err, align 8
  %call1 = call zeroext i1 @hmp_handle_error(ptr noundef %mon, ptr noundef %0) #12
  br i1 %call1, label %return, label %if.end

if.end:                                           ; preds = %entry
  call void (ptr, ...) @info_report(ptr noundef nonnull @.str.29, ptr noundef %call) #12
  br label %return

return:                                           ; preds = %entry, %if.end
  ret void
}